target datalayout = "e-m:e-p270:32:32-p271:32:32-p272:64:64-i64:64-i128:128-f80:128-n8:16:32:64-S128"
target triple = "x86_64-pc-linux-gnu"

%struct._GArray = type { ptr, i32 }
%union.GdbCmdVariant = type { ptr, [8 x i8] }

@phy_memory_mode = internal global i32 0, align 4
@.str.13 = private unnamed_addr constant [4 x i8] c"E22\00", align 1
@.str.14 = private unnamed_addr constant [3 x i8] c"OK\00", align 1

; Function Attrs: nounwind sspstrong uwtable
define dso_local void @gdb_handle_set_qemu_phy_mem_mode(ptr noundef %0, ptr noundef %1) #0 {
  %3 = alloca ptr, align 8
  %4 = alloca ptr, align 8
  store ptr %0, ptr %3, align 8
  store ptr %1, ptr %4, align 8
  %5 = load ptr, ptr %3, align 8
  %6 = getelementptr inbounds nuw %struct._GArray, ptr %5, i32 0, i32 1
  %7 = load i32, ptr %6, align 8
  %8 = icmp ne i32 %7, 0
  br i1 %8, label %11, label %9

9:                                                ; preds = %2
  %10 = call i32 @gdb_put_packet(ptr noundef @.str.13)
  br label %22

11:                                               ; preds = %2
  %12 = load ptr, ptr %3, align 8
  %13 = getelementptr inbounds nuw %struct._GArray, ptr %12, i32 0, i32 0
  %14 = load ptr, ptr %13, align 8
  %15 = getelementptr inbounds %union.GdbCmdVariant, ptr %14, i64 0
  %16 = load i64, ptr %15, align 8
  %17 = icmp ne i64 %16, 0
  br i1 %17, label %19, label %18

18:                                               ; preds = %11
  store i32 0, ptr @phy_memory_mode, align 4
  br label %20

19:                                               ; preds = %11
  store i32 1, ptr @phy_memory_mode, align 4
  br label %20

20:                                               ; preds = %19, %18
  %21 = call i32 @gdb_put_packet(ptr noundef @.str.14)
  br label %22

22:                                               ; preds = %20, %9
  ret void
}