; Function Attrs: nounwind sspstrong uwtable
define dso_local void @gdb_handle_set_qemu_phy_mem_mode(ptr noundef readonly captures(none) %0, ptr noundef readnone captures(none) %1) local_unnamed_addr #2 {
  %3 = getelementptr inbounds nuw i8, ptr %0, i64 8
  %4 = load i32, ptr %3, align 8
  %.not = icmp eq i32 %4, 0
  br i1 %.not, label %8, label %5

5:                                                ; preds = %2
  %6 = load ptr, ptr %0, align 8
  %7 = load i64, ptr %6, align 8
  %.not2 = icmp ne i64 %7, 0
  store i1 %.not2, ptr @phy_memory_mode, align 4
  br label %8

8:                                                ; preds = %2, %5
  %.str.14.sink = phi ptr [ @.str.14, %5 ], [ @.str.13, %2 ]
  %9 = tail call i32 @gdb_put_packet(ptr noundef nonnull %.str.14.sink) #16
  ret void
}